target datalayout = "e-m:e-p270:32:32-p271:32:32-p272:64:64-i64:64-i128:128-f80:128-n8:16:32:64-S128"
target triple = "x86_64-pc-linux-gnu"

%struct.RelFileLocator = type { i32, i32, i32 }
%struct.SMgrRelationData = type { %struct.RelFileLocatorBackend, i32, [4 x i32], i32, [4 x i32], [4 x ptr], i32, %struct.dlist_node }
%struct.RelFileLocatorBackend = type { %struct.RelFileLocator, i32 }
%struct.dlist_node = type { ptr, ptr }

@.str.1 = private unnamed_addr constant [10 x i8] c"storage.c\00", align 1
@wal_level = external global i32, align 4
@InterruptPending = external global i32, align 4
@.str.2 = private unnamed_addr constant [40 x i8] c"invalid page in block %u of relation %s\00", align 1
@__func__.RelationCopyStorage = private unnamed_addr constant [20 x i8] c"RelationCopyStorage\00", align 1

; Function Attrs: inlinehint nounwind uwtable
define internal void @smgrread(ptr noundef %0, i32 noundef %1, i32 noundef %2, ptr noundef %3) #5 {
  %5 = alloca ptr, align 8
  %6 = alloca i32, align 4
  %7 = alloca i32, align 4
  %8 = alloca ptr, align 8
  store ptr %0, ptr %5, align 8
  store i32 %1, ptr %6, align 4
  store i32 %2, ptr %7, align 4
  store ptr %3, ptr %8, align 8
  %9 = load ptr, ptr %5, align 8
  %10 = load i32, ptr %6, align 4
  %11 = load i32, ptr %7, align 4
  call void @smgrreadv(ptr noundef %9, i32 noundef %10, i32 noundef %11, ptr noundef %8, i32 noundef 1)
  ret void
}

; Function Attrs: nounwind uwtable
define dso_local void @RelationCopyStorage(ptr noundef %0, ptr noundef %1, i32 noundef %2, i8 noundef signext %3) #0 {
  %5 = alloca ptr, align 8
  %6 = alloca ptr, align 8
  %7 = alloca i32, align 4
  %8 = alloca i8, align 1
  %9 = alloca i8, align 1
  %10 = alloca i8, align 1
  %11 = alloca i32, align 4
  %12 = alloca i32, align 4
  %13 = alloca ptr, align 8
  %14 = alloca ptr, align 8
  %15 = alloca ptr, align 8
  store ptr %0, ptr %5, align 8
  store ptr %1, ptr %6, align 8
  store i32 %2, ptr %7, align 4
  store i8 %3, ptr %8, align 1
  call void @llvm.lifetime.start.p0(i64 1, ptr %9) #8
  call void @llvm.lifetime.start.p0(i64 1, ptr %10) #8
  call void @llvm.lifetime.start.p0(i64 4, ptr %11) #8
  call void @llvm.lifetime.start.p0(i64 4, ptr %12) #8
  call void @llvm.lifetime.start.p0(i64 8, ptr %13) #8
  %16 = load i8, ptr %8, align 1
  %17 = sext i8 %16 to i32
  %18 = icmp eq i32 %17, 117
  br i1 %18, label %19, label %22

19:                                               ; preds = %4
  %20 = load i32, ptr %7, align 4
  %21 = icmp eq i32 %20, 3
  br label %22

22:                                               ; preds = %19, %4
  %23 = phi i1 [ false, %4 ], [ %21, %19 ]
  %24 = zext i1 %23 to i8
  store i8 %24, ptr %10, align 1
  %25 = load i32, ptr @wal_level, align 4
  %26 = icmp sge i32 %25, 1
  br i1 %26, label %27, label %36

27:                                               ; preds = %22
  %28 = load i8, ptr %8, align 1
  %29 = sext i8 %28 to i32
  %30 = icmp eq i32 %29, 112
  br i1 %30, label %34, label %31

31:                                               ; preds = %27
  %32 = load i8, ptr %10, align 1, !range !4, !noundef !5
  %33 = trunc i8 %32 to i1
  br label %34

34:                                               ; preds = %31, %27
  %35 = phi i1 [ true, %27 ], [ %33, %31 ]
  br label %36

36:                                               ; preds = %34, %22
  %37 = phi i1 [ false, %22 ], [ %35, %34 ]
  %38 = zext i1 %37 to i8
  store i8 %38, ptr %9, align 1
  %39 = load ptr, ptr %6, align 8
  %40 = load i32, ptr %7, align 4
  %41 = load i8, ptr %9, align 1, !range !4, !noundef !5
  %42 = trunc i8 %41 to i1
  %43 = call ptr @smgr_bulk_start_smgr(ptr noundef %39, i32 noundef %40, i1 noundef zeroext %42)
  store ptr %43, ptr %13, align 8
  %44 = load ptr, ptr %5, align 8
  %45 = load i32, ptr %7, align 4
  %46 = call i32 @smgrnblocks(ptr noundef %44, i32 noundef %45)
  store i32 %46, ptr %11, align 4
  store i32 0, ptr %12, align 4
  br label %47

47:                                               ; preds = %111, %36
  %48 = load i32, ptr %12, align 4
  %49 = load i32, ptr %11, align 4
  %50 = icmp ult i32 %48, %49
  br i1 %50, label %51, label %114

51:                                               ; preds = %47
  call void @llvm.lifetime.start.p0(i64 8, ptr %14) #8
  br label %52

52:                                               ; preds = %51
  %53 = load volatile i32, ptr @InterruptPending, align 4
  %54 = icmp ne i32 %53, 0
  %55 = zext i1 %54 to i32
  %56 = sext i32 %55 to i64
  %57 = call i64 @llvm.expect.i64(i64 %56, i64 0)
  %58 = icmp ne i64 %57, 0
  br i1 %58, label %59, label %60

59:                                               ; preds = %52
  call void @ProcessInterrupts()
  br label %60

60:                                               ; preds = %59, %52
  br label %61

61:                                               ; preds = %60
  br label %62

62:                                               ; preds = %61
  %63 = load ptr, ptr %13, align 8
  %64 = call ptr @smgr_bulk_get_buf(ptr noundef %63)
  store ptr %64, ptr %14, align 8
  %65 = load ptr, ptr %5, align 8
  %66 = load i32, ptr %7, align 4
  %67 = load i32, ptr %12, align 4
  %68 = load ptr, ptr %14, align 8
  call void @smgrread(ptr noundef %65, i32 noundef %66, i32 noundef %67, ptr noundef %68)
  %69 = load ptr, ptr %14, align 8
  %70 = load i32, ptr %12, align 4
  %71 = call zeroext i1 @PageIsVerifiedExtended(ptr noundef %69, i32 noundef %70, i32 noundef 3)
  br i1 %71, label %107, label %72

72:                                               ; preds = %62
  call void @llvm.lifetime.start.p0(i64 8, ptr %15) #8
  %73 = load ptr, ptr %5, align 8
  %74 = getelementptr inbounds nuw %struct.SMgrRelationData, ptr %73, i32 0, i32 0
  %75 = getelementptr inbounds nuw %struct.RelFileLocatorBackend, ptr %74, i32 0, i32 0
  %76 = getelementptr inbounds nuw %struct.RelFileLocator, ptr %75, i32 0, i32 1
  %77 = load i32, ptr %76, align 4
  %78 = load ptr, ptr %5, align 8
  %79 = getelementptr inbounds nuw %struct.SMgrRelationData, ptr %78, i32 0, i32 0
  %80 = getelementptr inbounds nuw %struct.RelFileLocatorBackend, ptr %79, i32 0, i32 0
  %81 = getelementptr inbounds nuw %struct.RelFileLocator, ptr %80, i32 0, i32 0
  %82 = load i32, ptr %81, align 8
  %83 = load ptr, ptr %5, align 8
  %84 = getelementptr inbounds nuw %struct.SMgrRelationData, ptr %83, i32 0, i32 0
  %85 = getelementptr inbounds nuw %struct.RelFileLocatorBackend, ptr %84, i32 0, i32 0
  %86 = getelementptr inbounds nuw %struct.RelFileLocator, ptr %85, i32 0, i32 2
  %87 = load i32, ptr %86, align 8
  %88 = load ptr, ptr %5, align 8
  %89 = getelementptr inbounds nuw %struct.SMgrRelationData, ptr %88, i32 0, i32 0
  %90 = getelementptr inbounds nuw %struct.RelFileLocatorBackend, ptr %89, i32 0, i32 1
  %91 = load i32, ptr %90, align 4
  %92 = load i32, ptr %7, align 4
  %93 = call ptr @GetRelationPath(i32 noundef %77, i32 noundef %82, i32 noundef %87, i32 noundef %91, i32 noundef %92)
  store ptr %93, ptr %15, align 8
  br label %94

94:                                               ; preds = %72
  br i1 true, label %95, label %97

95:                                               ; preds = %94
  %96 = call zeroext i1 @errstart_cold(i32 noundef 21, ptr noundef null) #9
  br i1 %96, label %99, label %104

97:                                               ; preds = %94
  %98 = call zeroext i1 @errstart(i32 noundef 21, ptr noundef null)
  br i1 %98, label %99, label %104

99:                                               ; preds = %97, %95
  %100 = call i32 @errcode(i32 noundef 16779816)
  %101 = load i32, ptr %12, align 4
  %102 = load ptr, ptr %15, align 8
  %103 = call i32 (ptr, ...) @errmsg(ptr noundef @.str.2, i32 noundef %101, ptr noundef %102)
  call void @errfinish(ptr noundef @.str.1, i32 noundef 534, ptr noundef @__func__.RelationCopyStorage)
  br label %104

104:                                              ; preds = %99, %97, %95
  unreachable

105:                                              ; No predecessors!
  br label %106

106:                                              ; preds = %105
  call void @llvm.lifetime.end.p0(i64 8, ptr %15) #8
  br label %107

107:                                              ; preds = %106, %62
  %108 = load ptr, ptr %13, align 8
  %109 = load i32, ptr %12, align 4
  %110 = load ptr, ptr %14, align 8
  call void @smgr_bulk_write(ptr noundef %108, i32 noundef %109, ptr noundef %110, i1 noundef zeroext false)
  call void @llvm.lifetime.end.p0(i64 8, ptr %14) #8
  br label %111

111:                                              ; preds = %107
  %112 = load i32, ptr %12, align 4
  %113 = add i32 %112, 1
  store i32 %113, ptr %12, align 4
  br label %47, !llvm.loop !9

114:                                              ; preds = %47
  %115 = load ptr, ptr %13, align 8
  call void @smgr_bulk_finish(ptr noundef %115)
  call void @llvm.lifetime.end.p0(i64 8, ptr %13) #8
  call void @llvm.lifetime.end.p0(i64 4, ptr %12) #8
  call void @llvm.lifetime.end.p0(i64 4, ptr %11) #8
  call void @llvm.lifetime.end.p0(i64 1, ptr %10) #8
  call void @llvm.lifetime.end.p0(i64 1, ptr %9) #8
  ret void
}