; Function Attrs: nounwind uwtable
define dso_local void @RelationCopyStorage(ptr noundef %0, ptr noundef %1, i32 noundef %2, i8 noundef signext %3) local_unnamed_addr #0 {
  %5 = alloca ptr, align 8
  %6 = load i32, ptr @wal_level, align 4
  %7 = icmp sgt i32 %6, 0
  br i1 %7, label %8, label %14

8:                                                ; preds = %4
  %9 = icmp eq i8 %3, 117
  %10 = icmp eq i32 %2, 3
  %11 = and i1 %10, %9
  %12 = icmp eq i8 %3, 112
  %13 = or i1 %12, %11
  br label %14

14:                                               ; preds = %8, %4
  %15 = phi i1 [ false, %4 ], [ %13, %8 ]
  %16 = tail call ptr @smgr_bulk_start_smgr(ptr noundef %1, i32 noundef %2, i1 noundef zeroext %15) #8
  %17 = tail call i32 @smgrnblocks(ptr noundef %0, i32 noundef %2) #8
  %.not31 = icmp eq i32 %17, 0
  br i1 %.not31, label %._crit_edge, label %.lr.ph

.lr.ph:                                           ; preds = %14, %35
  %.030 = phi i32 [ %36, %35 ], [ 0, %14 ]
  %18 = load volatile i32, ptr @InterruptPending, align 4
  %.not = icmp eq i32 %18, 0
  br i1 %.not, label %20, label %19, !prof !9

19:                                               ; preds = %.lr.ph
  call void @ProcessInterrupts() #8
  br label %20

20:                                               ; preds = %19, %.lr.ph
  %21 = call ptr @smgr_bulk_get_buf(ptr noundef %16) #8
  call void @llvm.lifetime.start.p0(i64 8, ptr nonnull %5)
  store ptr %21, ptr %5, align 8
  call void @smgrreadv(ptr noundef %0, i32 noundef %2, i32 noundef %.030, ptr noundef nonnull %5, i32 noundef 1) #8
  call void @llvm.lifetime.end.p0(i64 8, ptr nonnull %5)
  %22 = call zeroext i1 @PageIsVerifiedExtended(ptr noundef %21, i32 noundef %.030, i32 noundef 3) #8
  br i1 %22, label %35, label %23

23:                                               ; preds = %20
  %24 = getelementptr inbounds nuw i8, ptr %0, i64 4
  %25 = load i32, ptr %24, align 4
  %26 = load i32, ptr %0, align 8
  %27 = getelementptr inbounds nuw i8, ptr %0, i64 8
  %28 = load i32, ptr %27, align 8
  %29 = getelementptr inbounds nuw i8, ptr %0, i64 12
  %30 = load i32, ptr %29, align 4
  %31 = call ptr @GetRelationPath(i32 noundef %25, i32 noundef %26, i32 noundef %28, i32 noundef %30, i32 noundef %2) #8
  %32 = call zeroext i1 @errstart_cold(i32 noundef 21, ptr noundef null) #7
  call void @llvm.assume(i1 %32)
  %33 = call i32 @errcode(i32 noundef 16779816) #8
  %34 = call i32 (ptr, ...) @errmsg(ptr noundef nonnull @.str.2, i32 noundef %.030, ptr noundef %31) #8
  call void @errfinish(ptr noundef nonnull @.str.1, i32 noundef 534, ptr noundef nonnull @__func__.RelationCopyStorage) #8
  unreachable

35:                                               ; preds = %20
  call void @smgr_bulk_write(ptr noundef %16, i32 noundef %.030, ptr noundef %21, i1 noundef zeroext false) #8
  %36 = add nuw i32 %.030, 1
  %exitcond.not = icmp eq i32 %36, %17
  br i1 %exitcond.not, label %._crit_edge, label %.lr.ph, !llvm.loop !10

._crit_edge:                                      ; preds = %35, %14
  call void @smgr_bulk_finish(ptr noundef %16) #8
  ret void
}